target datalayout = "e-m:e-p270:32:32-p271:32:32-p272:64:64-i64:64-i128:128-f80:128-n8:16:32:64-S128"
target triple = "x86_64-pc-linux-gnu"

%class.b3QuantizedBvh = type <{ ptr, [8 x i8], %class.b3Vector3, %class.b3Vector3, %class.b3Vector3, i32, i32, i8, [7 x i8], %class.b3AlignedObjectArray, %class.b3AlignedObjectArray, %class.b3AlignedObjectArray.0, %class.b3AlignedObjectArray.0, i32, [4 x i8], %class.b3AlignedObjectArray.2, i32, [4 x i8] }>
%class.b3Vector3 = type { %union.anon }
%union.anon = type { [4 x float] }
%class.b3AlignedObjectArray = type <{ [4 x i8], i32, i32, [4 x i8], ptr, i8, [7 x i8] }>
%class.b3AlignedObjectArray.0 = type <{ [4 x i8], i32, i32, [4 x i8], ptr, i8, [7 x i8] }>
%class.b3AlignedObjectArray.2 = type <{ [4 x i8], i32, i32, [4 x i8], ptr, i8, [7 x i8] }>
%struct.b3QuantizedBvhNode = type { %struct.b3QuantizedBvhNodeData }
%struct.b3QuantizedBvhNodeData = type { [3 x i16], [3 x i16], i32 }
%struct.b3OptimizedBvhNode = type { %class.b3Vector3, %class.b3Vector3, i32, i32, i32, [20 x i8] }

; Function Attrs: inlinehint mustprogress nounwind uwtable
define linkonce_odr dso_local noundef nonnull align 16 dereferenceable(64) ptr @_ZN20b3AlignedObjectArrayI18b3OptimizedBvhNodeEixEi(ptr noundef nonnull align 8 dereferenceable(25) %0, i32 noundef %1) #1 comdat align 2 {
  %3 = alloca ptr, align 8
  %4 = alloca i32, align 4
  store ptr %0, ptr %3, align 8, !tbaa !31
  store i32 %1, ptr %4, align 4, !tbaa !42
  %5 = load ptr, ptr %3, align 8
  %6 = getelementptr inbounds nuw %class.b3AlignedObjectArray, ptr %5, i32 0, i32 4
  %7 = load ptr, ptr %6, align 8, !tbaa !84
  %8 = load i32, ptr %4, align 4, !tbaa !42
  %9 = sext i32 %8 to i64
  %10 = getelementptr inbounds %struct.b3OptimizedBvhNode, ptr %7, i64 %9
  ret ptr %10
}

; Function Attrs: inlinehint mustprogress nounwind uwtable
define linkonce_odr dso_local noundef nonnull align 16 dereferenceable(16) ptr @_ZN20b3AlignedObjectArrayI18b3QuantizedBvhNodeEixEi(ptr noundef nonnull align 8 dereferenceable(25) %0, i32 noundef %1) #1 comdat align 2 {
  %3 = alloca ptr, align 8
  %4 = alloca i32, align 4
  store ptr %0, ptr %3, align 8, !tbaa !33
  store i32 %1, ptr %4, align 4, !tbaa !42
  %5 = load ptr, ptr %3, align 8
  %6 = getelementptr inbounds nuw %class.b3AlignedObjectArray.0, ptr %5, i32 0, i32 4
  %7 = load ptr, ptr %6, align 8, !tbaa !54
  %8 = load i32, ptr %4, align 4, !tbaa !42
  %9 = sext i32 %8 to i64
  %10 = getelementptr inbounds %struct.b3QuantizedBvhNode, ptr %7, i64 %9
  ret ptr %10
}

; Function Attrs: mustprogress uwtable
define dso_local void @_ZN14b3QuantizedBvh13swapLeafNodesEii(ptr noundef nonnull align 16 dereferenceable(252) %0, i32 noundef %1, i32 noundef %2) #0 align 2 {
  %4 = alloca ptr, align 8
  %5 = alloca i32, align 4
  %6 = alloca i32, align 4
  %7 = alloca %struct.b3QuantizedBvhNode, align 16
  %8 = alloca %struct.b3OptimizedBvhNode, align 16
  store ptr %0, ptr %4, align 8, !tbaa !4
  store i32 %1, ptr %5, align 4, !tbaa !42
  store i32 %2, ptr %6, align 4, !tbaa !42
  %9 = load ptr, ptr %4, align 8
  %10 = getelementptr inbounds nuw %class.b3QuantizedBvh, ptr %9, i32 0, i32 7
  %11 = load i8, ptr %10, align 8, !tbaa !26, !range !43, !noundef !44
  %12 = trunc i8 %11 to i1
  br i1 %12, label %13, label %26

13:                                               ; preds = %3
  call void @llvm.lifetime.start.p0(i64 16, ptr %7) #14
  %14 = getelementptr inbounds nuw %class.b3QuantizedBvh, ptr %9, i32 0, i32 11
  %15 = load i32, ptr %5, align 4, !tbaa !42
  %16 = call noundef nonnull align 16 dereferenceable(16) ptr @_ZN20b3AlignedObjectArrayI18b3QuantizedBvhNodeEixEi(ptr noundef nonnull align 8 dereferenceable(25) %14, i32 noundef %15)
  call void @llvm.memcpy.p0.p0.i64(ptr align 16 %7, ptr align 16 %16, i64 16, i1 false)
  %17 = getelementptr inbounds nuw %class.b3QuantizedBvh, ptr %9, i32 0, i32 11
  %18 = load i32, ptr %6, align 4, !tbaa !42
  %19 = call noundef nonnull align 16 dereferenceable(16) ptr @_ZN20b3AlignedObjectArrayI18b3QuantizedBvhNodeEixEi(ptr noundef nonnull align 8 dereferenceable(25) %17, i32 noundef %18)
  %20 = getelementptr inbounds nuw %class.b3QuantizedBvh, ptr %9, i32 0, i32 11
  %21 = load i32, ptr %5, align 4, !tbaa !42
  %22 = call noundef nonnull align 16 dereferenceable(16) ptr @_ZN20b3AlignedObjectArrayI18b3QuantizedBvhNodeEixEi(ptr noundef nonnull align 8 dereferenceable(25) %20, i32 noundef %21)
  call void @llvm.memcpy.p0.p0.i64(ptr align 16 %22, ptr align 16 %19, i64 16, i1 false)
  %23 = getelementptr inbounds nuw %class.b3QuantizedBvh, ptr %9, i32 0, i32 11
  %24 = load i32, ptr %6, align 4, !tbaa !42
  %25 = call noundef nonnull align 16 dereferenceable(16) ptr @_ZN20b3AlignedObjectArrayI18b3QuantizedBvhNodeEixEi(ptr noundef nonnull align 8 dereferenceable(25) %23, i32 noundef %24)
  call void @llvm.memcpy.p0.p0.i64(ptr align 16 %25, ptr align 16 %7, i64 16, i1 false)
  call void @llvm.lifetime.end.p0(i64 16, ptr %7) #14
  br label %39

26:                                               ; preds = %3
  call void @llvm.lifetime.start.p0(i64 64, ptr %8) #14
  %27 = getelementptr inbounds nuw %class.b3QuantizedBvh, ptr %9, i32 0, i32 9
  %28 = load i32, ptr %5, align 4, !tbaa !42
  %29 = call noundef nonnull align 16 dereferenceable(64) ptr @_ZN20b3AlignedObjectArrayI18b3OptimizedBvhNodeEixEi(ptr noundef nonnull align 8 dereferenceable(25) %27, i32 noundef %28)
  call void @llvm.memcpy.p0.p0.i64(ptr align 16 %8, ptr align 16 %29, i64 64, i1 false), !tbaa.struct !65
  %30 = getelementptr inbounds nuw %class.b3QuantizedBvh, ptr %9, i32 0, i32 9
  %31 = load i32, ptr %6, align 4, !tbaa !42
  %32 = call noundef nonnull align 16 dereferenceable(64) ptr @_ZN20b3AlignedObjectArrayI18b3OptimizedBvhNodeEixEi(ptr noundef nonnull align 8 dereferenceable(25) %30, i32 noundef %31)
  %33 = getelementptr inbounds nuw %class.b3QuantizedBvh, ptr %9, i32 0, i32 9
  %34 = load i32, ptr %5, align 4, !tbaa !42
  %35 = call noundef nonnull align 16 dereferenceable(64) ptr @_ZN20b3AlignedObjectArrayI18b3OptimizedBvhNodeEixEi(ptr noundef nonnull align 8 dereferenceable(25) %33, i32 noundef %34)
  call void @llvm.memcpy.p0.p0.i64(ptr align 16 %35, ptr align 16 %32, i64 64, i1 false), !tbaa.struct !65
  %36 = getelementptr inbounds nuw %class.b3QuantizedBvh, ptr %9, i32 0, i32 9
  %37 = load i32, ptr %6, align 4, !tbaa !42
  %38 = call noundef nonnull align 16 dereferenceable(64) ptr @_ZN20b3AlignedObjectArrayI18b3OptimizedBvhNodeEixEi(ptr noundef nonnull align 8 dereferenceable(25) %36, i32 noundef %37)
  call void @llvm.memcpy.p0.p0.i64(ptr align 16 %38, ptr align 16 %8, i64 64, i1 false), !tbaa.struct !65
  call void @llvm.lifetime.end.p0(i64 64, ptr %8) #14
  br label %39

39:                                               ; preds = %26, %13
  ret void
}