; Function Attrs: mustprogress nofree norecurse nosync nounwind willreturn memory(readwrite, inaccessiblemem: none) uwtable
define dso_local void @_ZN14b3QuantizedBvh13swapLeafNodesEii(ptr noundef nonnull readonly align 16 captures(none) dereferenceable(252) %0, i32 noundef %1, i32 noundef %2) local_unnamed_addr #9 align 2 {
  %.sroa.0 = alloca %struct.b3QuantizedBvhNodeData, align 16
  %4 = alloca %struct.b3OptimizedBvhNode, align 16
  %5 = getelementptr inbounds nuw i8, ptr %0, i64 72
  %6 = load i8, ptr %5, align 8, !tbaa !24, !range !42, !noundef !43
  %7 = trunc nuw i8 %6 to i1
  %8 = sext i32 %1 to i64
  %9 = sext i32 %2 to i64
  br i1 %7, label %10, label %17

10:                                               ; preds = %3
  call void @llvm.lifetime.start.p0(i64 16, ptr nonnull %.sroa.0)
  %11 = getelementptr inbounds nuw i8, ptr %0, i64 160
  %12 = load ptr, ptr %11, align 16, !tbaa !30
  %13 = getelementptr inbounds %struct.b3QuantizedBvhNode, ptr %12, i64 %8
  call void @llvm.memcpy.p0.p0.i64(ptr noundef nonnull align 16 dereferenceable(16) %.sroa.0, ptr noundef nonnull align 16 dereferenceable(16) %13, i64 16, i1 false)
  %14 = getelementptr inbounds %struct.b3QuantizedBvhNode, ptr %12, i64 %9
  tail call void @llvm.memcpy.p0.p0.i64(ptr noundef nonnull align 16 dereferenceable(16) %13, ptr noundef nonnull align 16 dereferenceable(16) %14, i64 16, i1 false)
  %15 = load ptr, ptr %11, align 16, !tbaa !30
  %16 = getelementptr inbounds %struct.b3QuantizedBvhNode, ptr %15, i64 %9
  call void @llvm.memcpy.p0.p0.i64(ptr noundef nonnull align 16 dereferenceable(16) %16, ptr noundef nonnull align 16 dereferenceable(16) %.sroa.0, i64 16, i1 false)
  call void @llvm.lifetime.end.p0(i64 16, ptr nonnull %.sroa.0)
  br label %24

17:                                               ; preds = %3
  call void @llvm.lifetime.start.p0(i64 64, ptr nonnull %4)
  %18 = getelementptr inbounds nuw i8, ptr %0, i64 96
  %19 = load ptr, ptr %18, align 16, !tbaa !26
  %20 = getelementptr inbounds %struct.b3OptimizedBvhNode, ptr %19, i64 %8
  call void @llvm.memcpy.p0.p0.i64(ptr noundef nonnull align 16 dereferenceable(64) %4, ptr noundef nonnull align 16 dereferenceable(64) %20, i64 64, i1 false), !tbaa.struct !53
  %21 = getelementptr inbounds %struct.b3OptimizedBvhNode, ptr %19, i64 %9
  tail call void @llvm.memcpy.p0.p0.i64(ptr noundef nonnull align 16 dereferenceable(64) %20, ptr noundef nonnull align 16 dereferenceable(64) %21, i64 64, i1 false), !tbaa.struct !53
  %22 = load ptr, ptr %18, align 16, !tbaa !26
  %23 = getelementptr inbounds %struct.b3OptimizedBvhNode, ptr %22, i64 %9
  call void @llvm.memcpy.p0.p0.i64(ptr noundef nonnull align 16 dereferenceable(64) %23, ptr noundef nonnull align 16 dereferenceable(64) %4, i64 64, i1 false), !tbaa.struct !53
  call void @llvm.lifetime.end.p0(i64 64, ptr nonnull %4)
  br label %24

24:                                               ; preds = %17, %10
  ret void
}